; Function Attrs: mustprogress nounwind uwtable
define dso_local void @_ZN21btSimpleDynamicsWorldD2Ev(ptr noundef nonnull align 8 dereferenceable(308) %this) unnamed_addr #2 align 2 personality ptr @__gxx_personality_v0 {
entry:
  store ptr getelementptr inbounds ({ [38 x ptr] }, ptr @_ZTV21btSimpleDynamicsWorld, i64 0, i32 0, i64 2), ptr %this, align 8
  %m_ownsConstraintSolver = getelementptr inbounds i8, ptr %this, i64 288
  %0 = load i8, ptr %m_ownsConstraintSolver, align 8
  %1 = and i8 %0, 1
  %tobool.not = icmp eq i8 %1, 0
  br i1 %tobool.not, label %if.end, label %if.then

if.then:                                          ; preds = %entry
  %m_constraintSolver = getelementptr inbounds i8, ptr %this, i64 280
  %2 = load ptr, ptr %m_constraintSolver, align 8
  invoke void @_Z21btAlignedFreeInternalPv(ptr noundef %2)
          to label %if.end unwind label %terminate.lpad

if.end:                                           ; preds = %if.then, %entry
  tail call void @_ZN16btCollisionWorldD2Ev(ptr noundef nonnull align 8 dereferenceable(121) %this) #12
  ret void

terminate.lpad:                                   ; preds = %if.then
  %3 = landingpad { ptr, i32 }
          catch ptr null
  %4 = extractvalue { ptr, i32 } %3, 0
  tail call void @__clang_call_terminate(ptr %4) #13
  unreachable
}